; ModuleID = 'bench/linux/original/bust_spinlocks.ll'
source_filename = "bench/linux/original/bust_spinlocks.ll"
target datalayout = "e-m:e-p270:32:32-p271:32:32-p272:64:64-i64:64-i128:128-f80:128-n8:16:32:64-S128"
target triple = "x86_64-unknown-linux-gnu"

@oops_in_progress = external dso_local local_unnamed_addr global i32, align 4

; Function Attrs: fn_ret_thunk_extern nounwind null_pointer_is_valid
define dso_local void @bust_spinlocks(i32 noundef %0) local_unnamed_addr #0 align 16 {
  %2 = icmp eq i32 %0, 0
  br i1 %2, label %6, label %3

3:                                                ; preds = %1
  %4 = load i32, ptr @oops_in_progress, align 4
  %5 = add i32 %4, 1
  store i32 %5, ptr @oops_in_progress, align 4
  br label %11

6:                                                ; preds = %1
  tail call void @console_unblank() #2
  %7 = load i32, ptr @oops_in_progress, align 4
  %8 = add i32 %7, -1
  store i32 %8, ptr @oops_in_progress, align 4
  %9 = icmp eq i32 %8, 0
  br i1 %9, label %10, label %11

10:                                               ; preds = %6
  tail call void @wake_up_klogd() #2
  br label %11

11:                                               ; preds = %10, %6, %3
  ret void
}

; Function Attrs: null_pointer_is_valid
declare dso_local void @console_unblank() local_unnamed_addr #1

; Function Attrs: null_pointer_is_valid
declare dso_local void @wake_up_klogd() local_unnamed_addr #1


!llvm.module.flags = !{!0, !1, !2, !3, !4}

!0 = !{i32 1, !"wchar_size", i32 2}
!1 = !{i32 8, !"cf-protection-branch", i32 1}
!2 = !{i32 4, !"function_return_thunk_extern", i32 1}
!3 = !{i32 4, !"indirect_branch_cs_prefix", i32 1}
!4 = !{i32 4, !"SkipRaxSetup", i32 1}
